; Function Attrs: mustprogress nounwind uwtable
define range(i32 0, -65535) i32 @_ZNK8WasmEdge4Host4WASI5INode12pathReadlinkENSt7__cxx1112basic_stringIcSt11char_traitsIcESaIcEEEN5cxx204spanIcLm18446744073709551615EEERj(ptr noundef nonnull readonly align 8 captures(none) dereferenceable(200) %0, ptr noundef nonnull %1, ptr %2, i64 %3, ptr noundef nonnull writeonly align 4 captures(none) dereferenceable(4) %4) local_unnamed_addr #0 align 2 personality ptr @__gxx_personality_v0 {
  %6 = load i32, ptr %0, align 8
  %7 = tail call noundef ptr @_ZNKSt7__cxx1112basic_stringIcSt11char_traitsIcESaIcEE5c_strEv(ptr noundef nonnull align 8 dereferenceable(32) %1) #24
  %8 = tail call i64 @readlinkat(i32 noundef %6, ptr noundef %7, ptr noundef %2, i64 noundef %3) #24
  %9 = icmp slt i64 %8, 0
  br i1 %9, label %10, label %16

10:                                               ; preds = %5
  %11 = tail call ptr @__errno_location() #25
  %12 = load i32, ptr %11, align 4
  %13 = tail call noundef zeroext i16 @_ZN8WasmEdge4Host4WASI6detail9fromErrNoEi(i32 noundef %12) #24
  %14 = zext i16 %13 to i32
  %15 = shl nuw i32 %14, 16
  br label %18

16:                                               ; preds = %5
  %17 = trunc i64 %8 to i32
  store i32 %17, ptr %4, align 4
  br label %18

18:                                               ; preds = %16, %10
  %.sroa.04.0.insert.insert = phi i32 [ %15, %10 ], [ 1, %16 ]
  ret i32 %.sroa.04.0.insert.insert
}